; Function Attrs: mustprogress nofree norecurse nosync nounwind memory(argmem: readwrite) uwtable
define internal void @_ZN2cv12cpu_baselineL16cvtScaleAbs64f8uEPKhmS2_mPhmNS_5Size_IiEEPv(ptr noundef readonly captures(none) %0, i64 noundef %1, ptr readnone captures(none) %2, i64 %3, ptr noundef writeonly captures(none) %4, i64 noundef %5, i64 %6, ptr noundef readonly captures(none) %7) #1 {
  %.sroa.2.0.extract.shift.i = lshr i64 %6, 32
  %.sroa.2.0.extract.trunc.i = trunc nuw i64 %.sroa.2.0.extract.shift.i to i32
  %9 = lshr i64 %1, 3
  %10 = icmp sgt i32 %.sroa.2.0.extract.trunc.i, 0
  br i1 %10, label %.preheader.lr.ph.i, label %_ZN2cv12cpu_baseline10cvtabs_32fIdhEEvPKT_mPT0_mNS_5Size_IiEEff.exit

.preheader.lr.ph.i:                               ; preds = %8
  %11 = getelementptr inbounds nuw i8, ptr %7, i64 8
  %12 = load double, ptr %11, align 8, !tbaa !7
  %13 = fptrunc double %12 to float
  %14 = load double, ptr %7, align 8, !tbaa !7
  %15 = fptrunc double %14 to float
  %.sroa.0.0.extract.trunc.i = trunc i64 %6 to i32
  %16 = icmp sgt i32 %.sroa.0.0.extract.trunc.i, 0
  %17 = fpext float %15 to double
  %18 = fpext float %13 to double
  br i1 %16, label %.preheader.us.preheader.i, label %_ZN2cv12cpu_baseline10cvtabs_32fIdhEEvPKT_mPT0_mNS_5Size_IiEEff.exit

.preheader.us.preheader.i:                        ; preds = %.preheader.lr.ph.i
  %wide.trip.count.i = and i64 %6, 2147483647
  br label %.preheader.us.i

.preheader.us.i:                                  ; preds = %._crit_edge.us.i, %.preheader.us.preheader.i
  %.01521.us.i = phi i32 [ %30, %._crit_edge.us.i ], [ 0, %.preheader.us.preheader.i ]
  %.01620.us.i = phi ptr [ %31, %._crit_edge.us.i ], [ %0, %.preheader.us.preheader.i ]
  %.01719.us.i = phi ptr [ %32, %._crit_edge.us.i ], [ %4, %.preheader.us.preheader.i ]
  br label %19

19:                                               ; preds = %19, %.preheader.us.i
  %indvars.iv.i = phi i64 [ 0, %.preheader.us.i ], [ %indvars.iv.next.i, %19 ]
  %20 = getelementptr inbounds nuw double, ptr %.01620.us.i, i64 %indvars.iv.i
  %21 = load double, ptr %20, align 8, !tbaa !7
  %22 = tail call double @llvm.fmuladd.f64(double %21, double %17, double %18)
  %23 = tail call noundef double @llvm.fabs.f64(double %22)
  %24 = insertelement <2 x double> poison, double %23, i64 0
  %25 = tail call noundef i32 @llvm.x86.sse2.cvtsd2si(<2 x double> %24)
  %26 = tail call i32 @llvm.smax.i32(i32 %25, i32 0)
  %27 = tail call i32 @llvm.umin.i32(i32 %26, i32 255)
  %28 = trunc nuw i32 %27 to i8
  %29 = getelementptr inbounds nuw i8, ptr %.01719.us.i, i64 %indvars.iv.i
  store i8 %28, ptr %29, align 1, !tbaa !9
  %indvars.iv.next.i = add nuw nsw i64 %indvars.iv.i, 1
  %exitcond.not.i = icmp eq i64 %indvars.iv.next.i, %wide.trip.count.i
  br i1 %exitcond.not.i, label %._crit_edge.us.i, label %19, !llvm.loop !29

._crit_edge.us.i:                                 ; preds = %19
  %30 = add nuw nsw i32 %.01521.us.i, 1
  %31 = getelementptr inbounds nuw double, ptr %.01620.us.i, i64 %9
  %32 = getelementptr inbounds nuw i8, ptr %.01719.us.i, i64 %5
  %exitcond25.not.i = icmp eq i32 %30, %.sroa.2.0.extract.trunc.i
  br i1 %exitcond25.not.i, label %_ZN2cv12cpu_baseline10cvtabs_32fIdhEEvPKT_mPT0_mNS_5Size_IiEEff.exit, label %.preheader.us.i, !llvm.loop !30

_ZN2cv12cpu_baseline10cvtabs_32fIdhEEvPKT_mPT0_mNS_5Size_IiEEff.exit: ; preds = %._crit_edge.us.i, %8, %.preheader.lr.ph.i
  ret void
}